
wrapped_hack_soc_test_2.elf:     file format elf32-littleriscv


Disassembly of section .text:

10000000 <start>:
10000000:	4081                	li	ra,0
10000002:	4181                	li	gp,0
10000004:	4201                	li	tp,0
10000006:	4281                	li	t0,0
10000008:	4301                	li	t1,0
1000000a:	4381                	li	t2,0
1000000c:	4401                	li	s0,0
1000000e:	4481                	li	s1,0
10000010:	4501                	li	a0,0
10000012:	4581                	li	a1,0
10000014:	4601                	li	a2,0
10000016:	4681                	li	a3,0
10000018:	4701                	li	a4,0
1000001a:	4781                	li	a5,0
1000001c:	4801                	li	a6,0
1000001e:	4881                	li	a7,0
10000020:	4901                	li	s2,0
10000022:	4981                	li	s3,0
10000024:	4a01                	li	s4,0
10000026:	4a81                	li	s5,0
10000028:	4b01                	li	s6,0
1000002a:	4b81                	li	s7,0
1000002c:	4c01                	li	s8,0
1000002e:	4c81                	li	s9,0
10000030:	4d01                	li	s10,0
10000032:	4d81                	li	s11,0
10000034:	4e01                	li	t3,0
10000036:	4e81                	li	t4,0
10000038:	4f01                	li	t5,0
1000003a:	4f81                	li	t6,0
1000003c:	00000517          	auipc	a0,0x0
10000040:	1b050513          	addi	a0,a0,432 # 100001ec <_etext>
10000044:	00000593          	li	a1,0
10000048:	00000613          	li	a2,0
1000004c:	00c5d863          	bge	a1,a2,1000005c <end_init_data>

10000050 <loop_init_data>:
10000050:	4114                	lw	a3,0(a0)
10000052:	c194                	sw	a3,0(a1)
10000054:	0511                	addi	a0,a0,4
10000056:	0591                	addi	a1,a1,4
10000058:	fec5cce3          	blt	a1,a2,10000050 <loop_init_data>

1000005c <end_init_data>:
1000005c:	00000513          	li	a0,0
10000060:	00800593          	li	a1,8
10000064:	00b55763          	bge	a0,a1,10000072 <end_init_bss>

10000068 <loop_init_bss>:
10000068:	00052023          	sw	zero,0(a0)
1000006c:	0511                	addi	a0,a0,4
1000006e:	feb54de3          	blt	a0,a1,10000068 <loop_init_bss>

10000072 <end_init_bss>:
10000072:	2871                	jal	1000010e <main>

10000074 <loop>:
10000074:	a001                	j	10000074 <loop>
10000076:	0001                	nop

10000078 <flashio_worker_begin>:
10000078:	280002b7          	lui	t0,0x28000
1000007c:	12000313          	li	t1,288
10000080:	00629023          	sh	t1,0(t0) # 28000000 <_etext+0x17fffe14>
10000084:	000281a3          	sb	zero,3(t0)
10000088:	c605                	beqz	a2,100000b0 <flashio_worker_L1>
1000008a:	4f21                	li	t5,8
1000008c:	0ff67393          	zext.b	t2,a2

10000090 <flashio_worker_L4>:
10000090:	0073de93          	srli	t4,t2,0x7
10000094:	01d28023          	sb	t4,0(t0)
10000098:	010eee93          	ori	t4,t4,16
1000009c:	01d28023          	sb	t4,0(t0)
100000a0:	0386                	slli	t2,t2,0x1
100000a2:	0ff3f393          	zext.b	t2,t2
100000a6:	1f7d                	addi	t5,t5,-1
100000a8:	fe0f14e3          	bnez	t5,10000090 <flashio_worker_L4>
100000ac:	00628023          	sb	t1,0(t0)

100000b0 <flashio_worker_L1>:
100000b0:	c9a1                	beqz	a1,10000100 <flashio_worker_L3>
100000b2:	02000f13          	li	t5,32
100000b6:	00052383          	lw	t2,0(a0)

100000ba <flashio_worker_LY>:
100000ba:	4fa1                	li	t6,8

100000bc <flashio_worker_L2>:
100000bc:	01f3de93          	srli	t4,t2,0x1f
100000c0:	01d28023          	sb	t4,0(t0)
100000c4:	010eee93          	ori	t4,t4,16
100000c8:	01d28023          	sb	t4,0(t0)
100000cc:	0002ce83          	lbu	t4,0(t0)
100000d0:	002efe93          	andi	t4,t4,2
100000d4:	001ede93          	srli	t4,t4,0x1
100000d8:	0386                	slli	t2,t2,0x1
100000da:	01d3e3b3          	or	t2,t2,t4
100000de:	1f7d                	addi	t5,t5,-1
100000e0:	000f1763          	bnez	t5,100000ee <flashio_worker_LX>
100000e4:	00752023          	sw	t2,0(a0)
100000e8:	0511                	addi	a0,a0,4
100000ea:	00052383          	lw	t2,0(a0)

100000ee <flashio_worker_LX>:
100000ee:	1ffd                	addi	t6,t6,-1
100000f0:	fc0f96e3          	bnez	t6,100000bc <flashio_worker_L2>
100000f4:	15fd                	addi	a1,a1,-1
100000f6:	f1f1                	bnez	a1,100000ba <flashio_worker_LY>
100000f8:	000f0463          	beqz	t5,10000100 <flashio_worker_L3>
100000fc:	00752023          	sw	t2,0(a0)

10000100 <flashio_worker_L3>:
10000100:	08000313          	li	t1,128
10000104:	006281a3          	sb	t1,3(t0)
10000108:	8082                	ret
1000010a:	0001                	nop

1000010c <flashio_worker_end>:
	...

1000010e <main>:
1000010e:	6709                	lui	a4,0x2
10000110:	260007b7          	lui	a5,0x26000
10000114:	80870693          	addi	a3,a4,-2040 # 1808 <_ebss+0x1800>
10000118:	0ad7ac23          	sw	a3,184(a5) # 260000b8 <_etext+0x15fffecc>
1000011c:	0ad7aa23          	sw	a3,180(a5)
10000120:	0ad7a823          	sw	a3,176(a5)
10000124:	0ad7a623          	sw	a3,172(a5)
10000128:	40200613          	li	a2,1026
1000012c:	0ac7a423          	sw	a2,168(a5)
10000130:	0ac7a223          	sw	a2,164(a5)
10000134:	0ac7a023          	sw	a2,160(a5)
10000138:	08c7ae23          	sw	a2,156(a5)
1000013c:	08d7ac23          	sw	a3,152(a5)
10000140:	08d7aa23          	sw	a3,148(a5)
10000144:	08d7a823          	sw	a3,144(a5)
10000148:	08c7a623          	sw	a2,140(a5)
1000014c:	80070713          	addi	a4,a4,-2048
10000150:	08e7a423          	sw	a4,136(a5)
10000154:	08e7a223          	sw	a4,132(a5)
10000158:	08e7a023          	sw	a4,128(a5)
1000015c:	dff8                	sw	a4,124(a5)
1000015e:	dfb4                	sw	a3,120(a5)
10000160:	dbf4                	sw	a3,116(a5)
10000162:	dbb8                	sw	a4,112(a5)
10000164:	d7f8                	sw	a4,108(a5)
10000166:	d7b8                	sw	a4,104(a5)
10000168:	d3f8                	sw	a4,100(a5)
1000016a:	d3b4                	sw	a3,96(a5)
1000016c:	cff4                	sw	a3,92(a5)
1000016e:	cfb8                	sw	a4,88(a5)
10000170:	cbf8                	sw	a4,84(a5)
10000172:	cbb8                	sw	a4,80(a5)
10000174:	c7f8                	sw	a4,76(a5)
10000176:	c7b4                	sw	a3,72(a5)
10000178:	c3f4                	sw	a3,68(a5)
1000017a:	4705                	li	a4,1
1000017c:	c398                	sw	a4,0(a5)
1000017e:	260006b7          	lui	a3,0x26000
10000182:	429c                	lw	a5,0(a3)
10000184:	fee78fe3          	beq	a5,a4,10000182 <main+0x74>
10000188:	250007b7          	lui	a5,0x25000
1000018c:	0007a823          	sw	zero,16(a5) # 25000010 <_etext+0x14fffe24>
10000190:	0207a023          	sw	zero,32(a5)
10000194:	4b98                	lw	a4,16(a5)
10000196:	080005b7          	lui	a1,0x8000
1000019a:	100006b7          	lui	a3,0x10000
1000019e:	8f4d                	or	a4,a4,a1
100001a0:	cb98                	sw	a4,16(a5)
100001a2:	5390                	lw	a2,32(a5)
100001a4:	00000713          	li	a4,0
100001a8:	8e4d                	or	a2,a2,a1
100001aa:	d390                	sw	a2,32(a5)
100001ac:	06100613          	li	a2,97
100001b0:	00c700a3          	sb	a2,1(a4)
100001b4:	0c368613          	addi	a2,a3,195 # 100000c3 <flashio_worker_L2+0x7>
100001b8:	c390                	sw	a2,0(a5)
100001ba:	0207a223          	sw	zero,36(a5)
100001be:	0007aa23          	sw	zero,20(a5)
100001c2:	04000613          	li	a2,64
100001c6:	c3d0                	sw	a2,4(a5)
100001c8:	00070023          	sb	zero,0(a4)
100001cc:	0c268613          	addi	a2,a3,194
100001d0:	c390                	sw	a2,0(a5)
100001d2:	4c268693          	addi	a3,a3,1218
100001d6:	c394                	sw	a3,0(a5)
100001d8:	000701a3          	sb	zero,3(a4)
100001dc:	c390                	sw	a2,0(a5)
100001de:	00070323          	sb	zero,6(a4)
100001e2:	0c200713          	li	a4,194
100001e6:	c398                	sw	a4,0(a5)
100001e8:	8082                	ret
	...
